target datalayout = "e-m:e-p270:32:32-p271:32:32-p272:64:64-i64:64-i128:128-f80:128-n8:16:32:64-S128"
target triple = "x86_64-pc-linux-gnu"

%struct.wtap = type { ptr, ptr, i8, i32, i32, ptr, ptr, ptr, i32, ptr, ptr, ptr, ptr, ptr, ptr, ptr, ptr, ptr, ptr, i32, i32, ptr, ptr, ptr, ptr }
%struct.wtap_rec = type { i32, i32, i32, %struct.nstime_t, i32, %struct.nstime_t, i8, %union.anon, ptr, i8, %struct.Buffer, %struct.Buffer }
%struct.nstime_t = type { i64, i32 }
%union.anon = type { %struct.wtap_packet_header }
%struct.wtap_packet_header = type { i32, i32, i32, i32, %union.wtap_pseudo_header }
%union.wtap_pseudo_header = type { %struct.erf_mc_phdr }
%struct.erf_mc_phdr = type { %struct.erf_phdr, [16 x %struct.erf_ehdr], %union.anon.1 }
%struct.erf_phdr = type { i64, i8, i8, i16, i16, i16 }
%struct.erf_ehdr = type { i64 }
%union.anon.1 = type { i32 }
%struct.Buffer = type { ptr, i64, i64, i64 }
%struct.atm_phdr = type { i32, i8, i8, i8, i16, i16, i8, i16, i16, i16, i16, i32 }

; Function Attrs: null_pointer_is_valid sspstrong uwtable
define internal void @netxray_guess_atm_type(ptr noundef %0, ptr noundef %1) #0 {
  %3 = alloca ptr, align 8
  %4 = alloca ptr, align 8
  store ptr %0, ptr %3, align 8
  store ptr %1, ptr %4, align 8
  %5 = load ptr, ptr %3, align 8
  %6 = getelementptr inbounds nuw %struct.wtap, ptr %5, i32 0, i32 19
  %7 = load i32, ptr %6, align 8
  %8 = icmp eq i32 %7, 14
  br i1 %8, label %9, label %47

9:                                                ; preds = %2
  %10 = load ptr, ptr %4, align 8
  %11 = getelementptr inbounds nuw %struct.wtap_rec, ptr %10, i32 0, i32 7
  %12 = getelementptr inbounds nuw %struct.wtap_packet_header, ptr %11, i32 0, i32 4
  %13 = getelementptr inbounds nuw %struct.atm_phdr, ptr %12, i32 0, i32 0
  %14 = load i32, ptr %13, align 8
  %15 = and i32 %14, 8
  %16 = icmp ne i32 %15, 0
  br i1 %16, label %47, label %17

17:                                               ; preds = %9
  %18 = load ptr, ptr %4, align 8
  %19 = getelementptr inbounds nuw %struct.wtap_rec, ptr %18, i32 0, i32 7
  %20 = getelementptr inbounds nuw %struct.wtap_packet_header, ptr %19, i32 0, i32 4
  %21 = getelementptr inbounds nuw %struct.atm_phdr, ptr %20, i32 0, i32 1
  %22 = load i8, ptr %21, align 4
  %23 = zext i8 %22 to i32
  %24 = icmp eq i32 %23, 0
  br i1 %24, label %25, label %27

25:                                               ; preds = %17
  %26 = load ptr, ptr %4, align 8
  call void @atm_guess_traffic_type(ptr noundef %26)
  br label %46

27:                                               ; preds = %17
  %28 = load ptr, ptr %4, align 8
  %29 = getelementptr inbounds nuw %struct.wtap_rec, ptr %28, i32 0, i32 7
  %30 = getelementptr inbounds nuw %struct.wtap_packet_header, ptr %29, i32 0, i32 4
  %31 = getelementptr inbounds nuw %struct.atm_phdr, ptr %30, i32 0, i32 1
  %32 = load i8, ptr %31, align 4
  %33 = zext i8 %32 to i32
  %34 = icmp eq i32 %33, 4
  br i1 %34, label %35, label %45

35:                                               ; preds = %27
  %36 = load ptr, ptr %4, align 8
  %37 = getelementptr inbounds nuw %struct.wtap_rec, ptr %36, i32 0, i32 7
  %38 = getelementptr inbounds nuw %struct.wtap_packet_header, ptr %37, i32 0, i32 4
  %39 = getelementptr inbounds nuw %struct.atm_phdr, ptr %38, i32 0, i32 2
  %40 = load i8, ptr %39, align 1
  %41 = zext i8 %40 to i32
  %42 = icmp eq i32 %41, 3
  br i1 %42, label %43, label %45

43:                                               ; preds = %35
  %44 = load ptr, ptr %4, align 8
  call void @atm_guess_lane_type(ptr noundef %44)
  br label %45

45:                                               ; preds = %43, %35, %27
  br label %46

46:                                               ; preds = %45, %25
  br label %47

47:                                               ; preds = %46, %9, %2
  ret void
}

; Function Attrs: null_pointer_is_valid sspstrong uwtable
define internal zeroext i1 @netxray_seek_read(ptr noundef %0, i64 noundef %1, ptr noundef %2, ptr noundef %3, ptr noundef %4) #0 {
  %6 = alloca i1, align 1
  %7 = alloca ptr, align 8
  %8 = alloca i64, align 8
  %9 = alloca ptr, align 8
  %10 = alloca ptr, align 8
  %11 = alloca ptr, align 8
  store ptr %0, ptr %7, align 8
  store i64 %1, ptr %8, align 8
  store ptr %2, ptr %9, align 8
  store ptr %3, ptr %10, align 8
  store ptr %4, ptr %11, align 8
  %12 = load ptr, ptr %7, align 8
  %13 = getelementptr inbounds nuw %struct.wtap, ptr %12, i32 0, i32 1
  %14 = load ptr, ptr %13, align 8
  %15 = load i64, ptr %8, align 8
  %16 = load ptr, ptr %10, align 8
  %17 = call i64 @file_seek(ptr noundef %14, i64 noundef %15, i32 noundef 0, ptr noundef %16)
  %18 = icmp eq i64 %17, -1
  br i1 %18, label %19, label %20

19:                                               ; preds = %5
  store i1 false, ptr %6, align 1
  br label %54

20:                                               ; preds = %5
  %21 = load ptr, ptr %7, align 8
  %22 = load ptr, ptr %7, align 8
  %23 = getelementptr inbounds nuw %struct.wtap, ptr %22, i32 0, i32 1
  %24 = load ptr, ptr %23, align 8
  %25 = load ptr, ptr %9, align 8
  %26 = load ptr, ptr %10, align 8
  %27 = load ptr, ptr %11, align 8
  %28 = call i32 @netxray_process_rec_header(ptr noundef %21, ptr noundef %24, ptr noundef %25, ptr noundef %26, ptr noundef %27)
  %29 = icmp eq i32 %28, -1
  br i1 %29, label %30, label %37

30:                                               ; preds = %20
  %31 = load ptr, ptr %10, align 8
  %32 = load i32, ptr %31, align 4
  %33 = icmp eq i32 %32, 0
  br i1 %33, label %34, label %36

34:                                               ; preds = %30
  %35 = load ptr, ptr %10, align 8
  store i32 -12, ptr %35, align 4
  br label %36

36:                                               ; preds = %34, %30
  store i1 false, ptr %6, align 1
  br label %54

37:                                               ; preds = %20
  %38 = load ptr, ptr %7, align 8
  %39 = getelementptr inbounds nuw %struct.wtap, ptr %38, i32 0, i32 1
  %40 = load ptr, ptr %39, align 8
  %41 = load ptr, ptr %9, align 8
  %42 = getelementptr inbounds nuw %struct.wtap_rec, ptr %41, i32 0, i32 11
  %43 = load ptr, ptr %9, align 8
  %44 = getelementptr inbounds nuw %struct.wtap_rec, ptr %43, i32 0, i32 7
  %45 = getelementptr inbounds nuw %struct.wtap_packet_header, ptr %44, i32 0, i32 0
  %46 = load i32, ptr %45, align 8
  %47 = load ptr, ptr %10, align 8
  %48 = load ptr, ptr %11, align 8
  %49 = call zeroext i1 @wtap_read_bytes_buffer(ptr noundef %40, ptr noundef %42, i32 noundef %46, ptr noundef %47, ptr noundef %48)
  br i1 %49, label %51, label %50

50:                                               ; preds = %37
  store i1 false, ptr %6, align 1
  br label %54

51:                                               ; preds = %37
  %52 = load ptr, ptr %7, align 8
  %53 = load ptr, ptr %9, align 8
  call void @netxray_guess_atm_type(ptr noundef %52, ptr noundef %53)
  store i1 true, ptr %6, align 1
  br label %54

54:                                               ; preds = %51, %50, %36, %19
  %55 = load i1, ptr %6, align 1
  ret i1 %55
}