; Function Attrs: null_pointer_is_valid sspstrong uwtable
define internal noundef zeroext i1 @netxray_seek_read(ptr noundef readonly captures(none) %0, i64 noundef %1, ptr noundef %2, ptr noundef %3, ptr noundef %4) #0 {
  %6 = getelementptr inbounds nuw i8, ptr %0, i64 8
  %7 = load ptr, ptr %6, align 8
  %8 = tail call i64 @file_seek(ptr noundef %7, i64 noundef %1, i32 noundef 0, ptr noundef %3)
  %9 = icmp eq i64 %8, -1
  br i1 %9, label %netxray_guess_atm_type.exit, label %10

10:                                               ; preds = %5
  %11 = load ptr, ptr %6, align 8
  %12 = tail call fastcc i32 @netxray_process_rec_header(ptr noundef %0, ptr noundef %11, ptr noundef %2, ptr noundef %3, ptr noundef %4)
  %13 = icmp eq i32 %12, -1
  br i1 %13, label %14, label %18

14:                                               ; preds = %10
  %15 = load i32, ptr %3, align 4
  %16 = icmp eq i32 %15, 0
  br i1 %16, label %17, label %netxray_guess_atm_type.exit

17:                                               ; preds = %14
  store i32 -12, ptr %3, align 4
  br label %netxray_guess_atm_type.exit

18:                                               ; preds = %10
  %19 = load ptr, ptr %6, align 8
  %20 = getelementptr inbounds nuw i8, ptr %2, i64 280
  %21 = getelementptr inbounds nuw i8, ptr %2, i64 64
  %22 = load i32, ptr %21, align 8
  %23 = tail call zeroext i1 @wtap_read_bytes_buffer(ptr noundef %19, ptr noundef nonnull %20, i32 noundef %22, ptr noundef %3, ptr noundef %4)
  br i1 %23, label %24, label %netxray_guess_atm_type.exit

24:                                               ; preds = %18
  %25 = getelementptr i8, ptr %0, i64 144
  %.val = load i32, ptr %25, align 8
  %26 = icmp eq i32 %.val, 14
  br i1 %26, label %27, label %netxray_guess_atm_type.exit

27:                                               ; preds = %24
  %28 = getelementptr inbounds nuw i8, ptr %2, i64 80
  %29 = load i32, ptr %28, align 8
  %30 = and i32 %29, 8
  %.not.i = icmp eq i32 %30, 0
  br i1 %.not.i, label %31, label %netxray_guess_atm_type.exit

31:                                               ; preds = %27
  %32 = getelementptr inbounds nuw i8, ptr %2, i64 84
  %33 = load i8, ptr %32, align 4
  switch i8 %33, label %netxray_guess_atm_type.exit [
    i8 0, label %34
    i8 4, label %35
  ]

34:                                               ; preds = %31
  tail call void @atm_guess_traffic_type(ptr noundef %2)
  br label %netxray_guess_atm_type.exit

35:                                               ; preds = %31
  %36 = getelementptr inbounds nuw i8, ptr %2, i64 85
  %37 = load i8, ptr %36, align 1
  %38 = icmp eq i8 %37, 3
  br i1 %38, label %39, label %netxray_guess_atm_type.exit

39:                                               ; preds = %35
  tail call void @atm_guess_lane_type(ptr noundef %2)
  br label %netxray_guess_atm_type.exit

netxray_guess_atm_type.exit:                      ; preds = %39, %35, %34, %31, %27, %24, %18, %14, %17, %5
  %.0 = phi i1 [ false, %5 ], [ false, %17 ], [ false, %14 ], [ false, %18 ], [ true, %24 ], [ true, %27 ], [ true, %31 ], [ true, %34 ], [ true, %35 ], [ true, %39 ]
  ret i1 %.0
}